; Function Attrs: nounwind sspstrong uwtable
define dso_local i32 @rb_io_maybe_wait_writable(i32 noundef %0, i64 noundef %1, i64 noundef %2) local_unnamed_addr #0 {
  %4 = inttoptr i64 %1 to ptr
  %5 = getelementptr inbounds nuw i8, ptr %4, i64 16
  %6 = load ptr, ptr %5, align 8, !tbaa !29
  %.not.i.i.i = icmp eq ptr %6, null
  br i1 %.not.i.i.i, label %7, label %rb_io_check_initialized.exit.i.i

7:                                                ; preds = %3
  %8 = load i64, ptr @rb_eIOError, align 8, !tbaa !23
  tail call void (i64, ptr, ...) @rb_raise(i64 noundef %8, ptr noundef nonnull @.str.4) #30
  unreachable

rb_io_check_initialized.exit.i.i:                 ; preds = %3
  %9 = getelementptr inbounds nuw i8, ptr %6, i64 16
  %10 = load i32, ptr %9, align 8, !tbaa !7
  %11 = icmp slt i32 %10, 0
  br i1 %11, label %12, label %rb_io_check_closed.exit.i

12:                                               ; preds = %rb_io_check_initialized.exit.i.i
  tail call void @rb_thread_check_ints() #28
  %13 = load i64, ptr @rb_eIOError, align 8, !tbaa !23
  tail call void (i64, ptr, ...) @rb_raise(i64 noundef %13, ptr noundef nonnull @closed_stream) #30
  unreachable

rb_io_check_closed.exit.i:                        ; preds = %rb_io_check_initialized.exit.i.i
  switch i32 %0, label %.thread16 [
    i32 4, label %.thread
    i32 85, label %.thread
    i32 11, label %rb_io_maybe_wait.exit
  ]

.thread:                                          ; preds = %rb_io_check_closed.exit.i, %rb_io_check_closed.exit.i
  tail call void @rb_thread_check_ints() #28
  br label %18

rb_io_maybe_wait.exit:                            ; preds = %rb_io_check_closed.exit.i
  %14 = tail call i64 @rb_io_wait(i64 noundef %1, i64 noundef 9, i64 noundef %2)
  %15 = and i64 %14, -5
  %.not = icmp eq i64 %15, 0
  br i1 %.not, label %23, label %16

16:                                               ; preds = %rb_io_maybe_wait.exit
  %17 = and i64 %14, 1
  %.not.i = icmp eq i64 %17, 0
  br i1 %.not.i, label %20, label %18

18:                                               ; preds = %.thread, %16
  %.0.i915 = phi i64 [ 9, %.thread ], [ %14, %16 ]
  %19 = tail call i64 @rb_fix2int(i64 noundef %.0.i915) #28
  br label %rb_num2int_inline.exit

20:                                               ; preds = %16
  %21 = tail call i64 @rb_num2int(i64 noundef %14) #28
  br label %rb_num2int_inline.exit

rb_num2int_inline.exit:                           ; preds = %18, %20
  %.0.i7 = phi i64 [ %19, %18 ], [ %21, %20 ]
  %22 = trunc i64 %.0.i7 to i32
  br label %.thread16

23:                                               ; preds = %rb_io_maybe_wait.exit
  %24 = icmp eq i64 %14, 0
  br i1 %24, label %25, label %.thread16

25:                                               ; preds = %23
  %26 = load i64, ptr @rb_eIOTimeoutError, align 8, !tbaa !23
  tail call void (i64, ptr, ...) @rb_raise(i64 noundef %26, ptr noundef nonnull @.str.10) #30
  unreachable

.thread16:                                        ; preds = %rb_io_check_closed.exit.i, %23, %rb_num2int_inline.exit
  %.0 = phi i32 [ %22, %rb_num2int_inline.exit ], [ 0, %23 ], [ 0, %rb_io_check_closed.exit.i ]
  ret i32 %.0
}